; Function Attrs: mustprogress uwtable
define void @_ZN6icu_7519BreakTransliteratorC2EPNS_13UnicodeFilterE(ptr noundef nonnull align 8 dereferenceable(168) %this, ptr noundef %adoptedFilter) unnamed_addr #1 align 2 personality ptr @__gxx_personality_v0 {
entry:
  %ref.tmp = alloca %"class.icu_75::UnicodeString", align 8
  %agg.tmp = alloca %"class.icu_75::ConstChar16Ptr", align 8
  store ptr @.str, ptr %agg.tmp, align 8
  invoke void @_ZN6icu_7513UnicodeStringC1EaNS_14ConstChar16PtrEi(ptr noundef nonnull align 8 dereferenceable(64) %ref.tmp, i8 noundef signext 1, ptr noundef nonnull %agg.tmp, i32 noundef 17)
          to label %invoke.cont unwind label %lpad

invoke.cont:                                      ; preds = %entry
  invoke void @_ZN6icu_7514TransliteratorC2ERKNS_13UnicodeStringEPNS_13UnicodeFilterE(ptr noundef nonnull align 8 dereferenceable(84) %this, ptr noundef nonnull align 8 dereferenceable(64) %ref.tmp, ptr noundef %adoptedFilter)
          to label %invoke.cont7 unwind label %lpad2

invoke.cont7:                                     ; preds = %invoke.cont
  call void @_ZN6icu_7513UnicodeStringD1Ev(ptr noundef nonnull align 8 dereferenceable(64) %ref.tmp) #12
  %0 = load ptr, ptr %agg.tmp, align 8
  call void asm sideeffect "", "rm,~{memory},~{dirflag},~{fpsr},~{flags}"(ptr %0) #12, !srcloc !4
  store ptr getelementptr inbounds ({ [21 x ptr] }, ptr @_ZTVN6icu_7519BreakTransliteratorE, i64 0, i32 0, i64 2), ptr %this, align 8
  %cachedBI = getelementptr inbounds i8, ptr %this, i64 88
  %fInsertion = getelementptr inbounds i8, ptr %this, i64 104
  call void @llvm.memset.p0.i64(ptr noundef nonnull align 8 dereferenceable(16) %cachedBI, i8 0, i64 16, i1 false)
  invoke void @_ZN6icu_7513UnicodeStringC1EDs(ptr noundef nonnull align 8 dereferenceable(64) %fInsertion, i16 noundef zeroext 32)
          to label %invoke.cont9 unwind label %lpad8

invoke.cont9:                                     ; preds = %invoke.cont7
  ret void

lpad:                                             ; preds = %entry
  %1 = landingpad { ptr, i32 }
          cleanup
  br label %ehcleanup

lpad2:                                            ; preds = %invoke.cont
  %2 = landingpad { ptr, i32 }
          cleanup
  call void @_ZN6icu_7513UnicodeStringD1Ev(ptr noundef nonnull align 8 dereferenceable(64) %ref.tmp) #12
  br label %ehcleanup

ehcleanup:                                        ; preds = %lpad2, %lpad
  %.pn = phi { ptr, i32 } [ %2, %lpad2 ], [ %1, %lpad ]
  %3 = load ptr, ptr %agg.tmp, align 8
  call void asm sideeffect "", "rm,~{memory},~{dirflag},~{fpsr},~{flags}"(ptr %3) #12, !srcloc !4
  br label %eh.resume

lpad8:                                            ; preds = %invoke.cont7
  %4 = landingpad { ptr, i32 }
          cleanup
  %cachedBoundaries = getelementptr inbounds i8, ptr %this, i64 96
  %5 = load ptr, ptr %cachedBoundaries, align 8
  %isnull.i = icmp eq ptr %5, null
  br i1 %isnull.i, label %ehcleanup11, label %delete.notnull.i

delete.notnull.i:                                 ; preds = %lpad8
  %vtable.i = load ptr, ptr %5, align 8
  %vfn.i = getelementptr inbounds i8, ptr %vtable.i, i64 8
  %6 = load ptr, ptr %vfn.i, align 8
  call void %6(ptr noundef nonnull align 8 dereferenceable(32) %5) #12
  br label %ehcleanup11

ehcleanup11:                                      ; preds = %delete.notnull.i, %lpad8
  %7 = load ptr, ptr %cachedBI, align 8
  %isnull.i6 = icmp eq ptr %7, null
  br i1 %isnull.i6, label %ehcleanup12, label %delete.notnull.i7

delete.notnull.i7:                                ; preds = %ehcleanup11
  %vtable.i8 = load ptr, ptr %7, align 8
  %vfn.i9 = getelementptr inbounds i8, ptr %vtable.i8, i64 8
  %8 = load ptr, ptr %vfn.i9, align 8
  call void %8(ptr noundef nonnull align 8 dereferenceable(479) %7) #12
  br label %ehcleanup12

ehcleanup12:                                      ; preds = %delete.notnull.i7, %ehcleanup11
  call void @_ZN6icu_7514TransliteratorD2Ev(ptr noundef nonnull align 8 dereferenceable(84) %this) #12
  br label %eh.resume

eh.resume:                                        ; preds = %ehcleanup12, %ehcleanup
  %.pn2.pn.pn = phi { ptr, i32 } [ %4, %ehcleanup12 ], [ %.pn, %ehcleanup ]
  resume { ptr, i32 } %.pn2.pn.pn
}